target datalayout = "e-m:e-p270:32:32-p271:32:32-p272:64:64-i64:64-i128:128-f80:128-n8:16:32:64-S128"
target triple = "x86_64-pc-linux-gnu"

%union.git_hash_ctx = type { %struct.SHA1_CTX }
%struct.SHA1_CTX = type { i64, [5 x i32], [64 x i8], i32, i32, i32, i32, i32, ptr, [5 x i32], [5 x i32], [80 x i32], [80 x i32], [80 x [5 x i32]] }
%struct.git_hash_algo = type { ptr, i32, i64, i64, i64, ptr, ptr, ptr, ptr, ptr, ptr, ptr, ptr, ptr }
%struct.repository = type { ptr, ptr, ptr, ptr, ptr, %struct.strmap, %struct.strmap, %struct.repo_path_cache, ptr, ptr, ptr, ptr, %struct.repo_settings, ptr, ptr, ptr, ptr, ptr, ptr, i32, i32, i32, ptr, ptr, i32, i32, i8 }
%struct.strmap = type { %struct.hashmap, ptr, i8 }
%struct.hashmap = type { ptr, ptr, ptr, i32, i32, i32, i32, i8 }
%struct.repo_path_cache = type { ptr, ptr, ptr, ptr, ptr, ptr, ptr }
%struct.repo_settings = type { i32, i32, i32, i32, i32, i32, i32, i32, i32, i32, i32, i32, ptr, i32, i32, i32, i32, i32, i32, i32, i64, i64, i64 }

@the_repository = external global ptr, align 8

; Function Attrs: inlinehint nounwind uwtable
define internal i32 @hasheq(ptr noundef %0, ptr noundef %1, ptr noundef %2) #3 {
  %4 = alloca i32, align 4
  %5 = alloca ptr, align 8
  %6 = alloca ptr, align 8
  %7 = alloca ptr, align 8
  store ptr %0, ptr %5, align 8, !tbaa !30
  store ptr %1, ptr %6, align 8, !tbaa !30
  store ptr %2, ptr %7, align 8, !tbaa !33
  %8 = load ptr, ptr %7, align 8, !tbaa !33
  %9 = getelementptr inbounds nuw %struct.git_hash_algo, ptr %8, i32 0, i32 2
  %10 = load i64, ptr %9, align 8, !tbaa !32
  %11 = icmp eq i64 %10, 32
  br i1 %11, label %12, label %19

12:                                               ; preds = %3
  %13 = load ptr, ptr %5, align 8, !tbaa !30
  %14 = load ptr, ptr %6, align 8, !tbaa !30
  %15 = call i32 @memcmp(ptr noundef %13, ptr noundef %14, i64 noundef 32) #13
  %16 = icmp ne i32 %15, 0
  %17 = xor i1 %16, true
  %18 = zext i1 %17 to i32
  store i32 %18, ptr %4, align 4
  br label %26

19:                                               ; preds = %3
  %20 = load ptr, ptr %5, align 8, !tbaa !30
  %21 = load ptr, ptr %6, align 8, !tbaa !30
  %22 = call i32 @memcmp(ptr noundef %20, ptr noundef %21, i64 noundef 20) #13
  %23 = icmp ne i32 %22, 0
  %24 = xor i1 %23, true
  %25 = zext i1 %24 to i32
  store i32 %25, ptr %4, align 4
  br label %26

26:                                               ; preds = %19, %12
  %27 = load i32, ptr %4, align 4
  ret i32 %27
}

; Function Attrs: nounwind uwtable
define dso_local i32 @hashfile_checksum_valid(ptr noundef %0, i64 noundef %1) #0 {
  %3 = alloca i32, align 4
  %4 = alloca ptr, align 8
  %5 = alloca i64, align 8
  %6 = alloca [32 x i8], align 16
  %7 = alloca %union.git_hash_ctx, align 8
  %8 = alloca ptr, align 8
  %9 = alloca i64, align 8
  %10 = alloca i32, align 4
  store ptr %0, ptr %4, align 8, !tbaa !30
  store i64 %1, ptr %5, align 8, !tbaa !40
  call void @llvm.lifetime.start.p0(i64 32, ptr %6) #10
  call void @llvm.lifetime.start.p0(i64 2400, ptr %7) #10
  call void @llvm.lifetime.start.p0(i64 8, ptr %8) #10
  %11 = load ptr, ptr @the_repository, align 8, !tbaa !41
  %12 = getelementptr inbounds nuw %struct.repository, ptr %11, i32 0, i32 17
  %13 = load ptr, ptr %12, align 8, !tbaa !43
  %14 = call ptr @unsafe_hash_algo(ptr noundef %13)
  store ptr %14, ptr %8, align 8, !tbaa !33
  call void @llvm.lifetime.start.p0(i64 8, ptr %9) #10
  %15 = load i64, ptr %5, align 8, !tbaa !40
  %16 = load ptr, ptr %8, align 8, !tbaa !33
  %17 = getelementptr inbounds nuw %struct.git_hash_algo, ptr %16, i32 0, i32 2
  %18 = load i64, ptr %17, align 8, !tbaa !32
  %19 = sub i64 %15, %18
  store i64 %19, ptr %9, align 8, !tbaa !40
  %20 = load i64, ptr %5, align 8, !tbaa !40
  %21 = load ptr, ptr %8, align 8, !tbaa !33
  %22 = getelementptr inbounds nuw %struct.git_hash_algo, ptr %21, i32 0, i32 2
  %23 = load i64, ptr %22, align 8, !tbaa !32
  %24 = icmp ult i64 %20, %23
  br i1 %24, label %25, label %26

25:                                               ; preds = %2
  store i32 0, ptr %3, align 4
  store i32 1, ptr %10, align 4
  br label %45

26:                                               ; preds = %2
  %27 = load ptr, ptr %8, align 8, !tbaa !33
  %28 = getelementptr inbounds nuw %struct.git_hash_algo, ptr %27, i32 0, i32 5
  %29 = load ptr, ptr %28, align 8, !tbaa !60
  call void %29(ptr noundef %7)
  %30 = load ptr, ptr %8, align 8, !tbaa !33
  %31 = getelementptr inbounds nuw %struct.git_hash_algo, ptr %30, i32 0, i32 7
  %32 = load ptr, ptr %31, align 8, !tbaa !19
  %33 = load ptr, ptr %4, align 8, !tbaa !30
  %34 = load i64, ptr %9, align 8, !tbaa !40
  call void %32(ptr noundef %7, ptr noundef %33, i64 noundef %34)
  %35 = load ptr, ptr %8, align 8, !tbaa !33
  %36 = getelementptr inbounds nuw %struct.git_hash_algo, ptr %35, i32 0, i32 8
  %37 = load ptr, ptr %36, align 8, !tbaa !31
  %38 = getelementptr inbounds [32 x i8], ptr %6, i64 0, i64 0
  call void %37(ptr noundef %38, ptr noundef %7)
  %39 = getelementptr inbounds [32 x i8], ptr %6, i64 0, i64 0
  %40 = load ptr, ptr %4, align 8, !tbaa !30
  %41 = load i64, ptr %9, align 8, !tbaa !40
  %42 = getelementptr inbounds nuw i8, ptr %40, i64 %41
  %43 = load ptr, ptr %8, align 8, !tbaa !33
  %44 = call i32 @hasheq(ptr noundef %39, ptr noundef %42, ptr noundef %43)
  store i32 %44, ptr %3, align 4
  store i32 1, ptr %10, align 4
  br label %45

45:                                               ; preds = %26, %25
  call void @llvm.lifetime.end.p0(i64 8, ptr %9) #10
  call void @llvm.lifetime.end.p0(i64 8, ptr %8) #10
  call void @llvm.lifetime.end.p0(i64 2400, ptr %7) #10
  call void @llvm.lifetime.end.p0(i64 32, ptr %6) #10
  %46 = load i32, ptr %3, align 4
  ret i32 %46
}