; Function Attrs: nounwind uwtable
define dso_local range(i32 0, 2) i32 @hashfile_checksum_valid(ptr noundef %0, i64 noundef %1) local_unnamed_addr #0 {
  %3 = alloca [32 x i8], align 16
  %4 = alloca %union.git_hash_ctx, align 8
  call void @llvm.lifetime.start.p0(i64 32, ptr nonnull %3) #13
  call void @llvm.lifetime.start.p0(i64 2400, ptr nonnull %4) #13
  %5 = load ptr, ptr @the_repository, align 8, !tbaa !34
  %6 = getelementptr inbounds nuw i8, ptr %5, i64 400
  %7 = load ptr, ptr %6, align 8, !tbaa !36
  %8 = tail call ptr @unsafe_hash_algo(ptr noundef %7) #13
  %9 = getelementptr inbounds nuw i8, ptr %8, i64 16
  %10 = load i64, ptr %9, align 8, !tbaa !27
  %11 = icmp ult i64 %1, %10
  br i1 %11, label %22, label %12

12:                                               ; preds = %2
  %13 = sub nuw i64 %1, %10
  %14 = getelementptr inbounds nuw i8, ptr %8, i64 40
  %15 = load ptr, ptr %14, align 8, !tbaa !53
  call void %15(ptr noundef nonnull %4) #13
  %16 = getelementptr inbounds nuw i8, ptr %8, i64 56
  %17 = load ptr, ptr %16, align 8, !tbaa !16
  call void %17(ptr noundef nonnull %4, ptr noundef %0, i64 noundef %13) #13
  %18 = getelementptr inbounds nuw i8, ptr %8, i64 64
  %19 = load ptr, ptr %18, align 8, !tbaa !28
  call void %19(ptr noundef nonnull %3, ptr noundef nonnull %4) #13
  %20 = getelementptr inbounds nuw i8, ptr %0, i64 %13
  %.val = load i64, ptr %9, align 8, !tbaa !27
  %21 = icmp eq i64 %.val, 32
  %..i = select i1 %21, i64 32, i64 20
  %bcmp.i = call i32 @bcmp(ptr noundef nonnull readonly dereferenceable(20) %3, ptr noundef nonnull readonly dereferenceable(20) %20, i64 %..i)
  %.0.in.i = icmp eq i32 %bcmp.i, 0
  %.0.i = zext i1 %.0.in.i to i32
  br label %22

22:                                               ; preds = %2, %12
  %.0 = phi i32 [ %.0.i, %12 ], [ 0, %2 ]
  call void @llvm.lifetime.end.p0(i64 2400, ptr nonnull %4) #13
  call void @llvm.lifetime.end.p0(i64 32, ptr nonnull %3) #13
  ret i32 %.0
}